target datalayout = "e-m:e-p270:32:32-p271:32:32-p272:64:64-i64:64-i128:128-f80:128-n8:16:32:64-S128"
target triple = "x86_64-pc-linux-gnu"

%struct.tr2_tgt = type { ptr, ptr, ptr, ptr, ptr, ptr, ptr, ptr, ptr, ptr, ptr, ptr, ptr, ptr, ptr, ptr, ptr, ptr, ptr, ptr, ptr, ptr, ptr, ptr, ptr, ptr, ptr, ptr, ptr, ptr }

@tr2_tgt_builtins = internal global [4 x ptr] [ptr @tr2_tgt_normal, ptr @tr2_tgt_perf, ptr @tr2_tgt_event, ptr null], align 16

; Function Attrs: nounwind uwtable
define internal void @tr2_tgt_emit_a_timer(ptr noundef %0, ptr noundef %1, i32 noundef %2) #0 {
  %4 = alloca ptr, align 8
  %5 = alloca ptr, align 8
  %6 = alloca i32, align 4
  %7 = alloca ptr, align 8
  %8 = alloca i32, align 4
  store ptr %0, ptr %4, align 8, !tbaa !76
  store ptr %1, ptr %5, align 8, !tbaa !78
  store i32 %2, ptr %6, align 4, !tbaa !9
  call void @llvm.lifetime.start.p0(i64 8, ptr %7) #9
  call void @llvm.lifetime.start.p0(i64 4, ptr %8) #9
  store i32 0, ptr %8, align 4, !tbaa !9
  %9 = load i32, ptr %8, align 4, !tbaa !9
  %10 = sext i32 %9 to i64
  %11 = getelementptr inbounds [4 x ptr], ptr @tr2_tgt_builtins, i64 0, i64 %10
  %12 = load ptr, ptr %11, align 8, !tbaa !11
  store ptr %12, ptr %7, align 8, !tbaa !11
  br label %13

13:                                               ; preds = %36, %3
  %14 = load ptr, ptr %7, align 8, !tbaa !11
  %15 = icmp ne ptr %14, null
  br i1 %15, label %16, label %43

16:                                               ; preds = %13
  %17 = load ptr, ptr %7, align 8, !tbaa !11
  %18 = getelementptr inbounds nuw %struct.tr2_tgt, ptr %17, i32 0, i32 0
  %19 = load ptr, ptr %18, align 8, !tbaa !13
  %20 = call i32 @tr2_dst_trace_want(ptr noundef %19)
  %21 = icmp ne i32 %20, 0
  br i1 %21, label %22, label %35

22:                                               ; preds = %16
  %23 = load ptr, ptr %7, align 8, !tbaa !11
  %24 = getelementptr inbounds nuw %struct.tr2_tgt, ptr %23, i32 0, i32 28
  %25 = load ptr, ptr %24, align 8, !tbaa !80
  %26 = icmp ne ptr %25, null
  br i1 %26, label %27, label %34

27:                                               ; preds = %22
  %28 = load ptr, ptr %7, align 8, !tbaa !11
  %29 = getelementptr inbounds nuw %struct.tr2_tgt, ptr %28, i32 0, i32 28
  %30 = load ptr, ptr %29, align 8, !tbaa !80
  %31 = load ptr, ptr %4, align 8, !tbaa !76
  %32 = load ptr, ptr %5, align 8, !tbaa !78
  %33 = load i32, ptr %6, align 4, !tbaa !9
  call void %30(ptr noundef %31, ptr noundef %32, i32 noundef %33)
  br label %34

34:                                               ; preds = %27, %22
  br label %35

35:                                               ; preds = %34, %16
  br label %36

36:                                               ; preds = %35
  %37 = load i32, ptr %8, align 4, !tbaa !9
  %38 = add nsw i32 %37, 1
  store i32 %38, ptr %8, align 4, !tbaa !9
  %39 = load i32, ptr %8, align 4, !tbaa !9
  %40 = sext i32 %39 to i64
  %41 = getelementptr inbounds [4 x ptr], ptr @tr2_tgt_builtins, i64 0, i64 %40
  %42 = load ptr, ptr %41, align 8, !tbaa !11
  store ptr %42, ptr %7, align 8, !tbaa !11
  br label %13, !llvm.loop !81

43:                                               ; preds = %13
  call void @llvm.lifetime.end.p0(i64 4, ptr %8) #9
  call void @llvm.lifetime.end.p0(i64 8, ptr %7) #9
  ret void
}