; Function Attrs: nounwind uwtable
define internal void @tr2_tgt_emit_a_timer(ptr noundef %0, ptr noundef %1, i32 noundef %2) #0 {
  br label %4

4:                                                ; preds = %3, %11
  %indvars.iv = phi i64 [ 0, %3 ], [ %indvars.iv.next, %11 ]
  %.0913 = phi ptr [ @tr2_tgt_normal, %3 ], [ %13, %11 ]
  %5 = load ptr, ptr %.0913, align 8, !tbaa !14
  %6 = tail call i32 @tr2_dst_trace_want(ptr noundef %5) #11
  %.not11 = icmp eq i32 %6, 0
  br i1 %.not11, label %11, label %7

7:                                                ; preds = %4
  %8 = getelementptr inbounds nuw i8, ptr %.0913, i64 224
  %9 = load ptr, ptr %8, align 8, !tbaa !76
  %.not12 = icmp eq ptr %9, null
  br i1 %.not12, label %11, label %10

10:                                               ; preds = %7
  tail call void %9(ptr noundef %0, ptr noundef %1, i32 noundef %2) #11
  br label %11

11:                                               ; preds = %4, %10, %7
  %indvars.iv.next = add nuw nsw i64 %indvars.iv, 1
  %12 = getelementptr inbounds nuw [4 x ptr], ptr @tr2_tgt_builtins, i64 0, i64 %indvars.iv.next
  %13 = load ptr, ptr %12, align 8, !tbaa !10
  %.not = icmp eq i64 %indvars.iv.next, 3
  br i1 %.not, label %14, label %4, !llvm.loop !77

14:                                               ; preds = %11
  ret void
}